target datalayout = "e-m:e-p270:32:32-p271:32:32-p272:64:64-i64:64-i128:128-f80:128-n8:16:32:64-S128"
target triple = "x86_64-pc-linux-gnu"

%struct._timelib_time = type { i64, i64, i64, i64, i64, i64, i64, i32, ptr, ptr, i32, %struct._timelib_rel_time, i64, i32, i32, i32, i32, i32, i32, i32, i32, i32 }
%struct._timelib_rel_time = type { i64, i64, i64, i64, i64, i64, i64, i32, i32, i32, i32, i64, %struct.anon, i32, i32 }
%struct.anon = type { i32, i64 }
%struct._timelib_time_offset = type { i32, i32, i32, ptr, i64 }

; Function Attrs: nounwind uwtable
define hidden void @timelib_set_timezone(ptr noundef %0, ptr noundef %1) #0 {
  %3 = alloca ptr, align 8
  %4 = alloca ptr, align 8
  %5 = alloca ptr, align 8
  store ptr %0, ptr %3, align 8, !tbaa !11
  store ptr %1, ptr %4, align 8, !tbaa !32
  call void @llvm.lifetime.start.p0(i64 8, ptr %5) #3
  %6 = load ptr, ptr %3, align 8, !tbaa !11
  %7 = getelementptr inbounds nuw %struct._timelib_time, ptr %6, i32 0, i32 12
  %8 = load i64, ptr %7, align 8, !tbaa !24
  %9 = load ptr, ptr %4, align 8, !tbaa !32
  %10 = call ptr @timelib_get_time_zone_info(i64 noundef %8, ptr noundef %9)
  store ptr %10, ptr %5, align 8, !tbaa !33
  %11 = load ptr, ptr %5, align 8, !tbaa !33
  %12 = getelementptr inbounds nuw %struct._timelib_time_offset, ptr %11, i32 0, i32 0
  %13 = load i32, ptr %12, align 8, !tbaa !35
  %14 = load ptr, ptr %3, align 8, !tbaa !11
  %15 = getelementptr inbounds nuw %struct._timelib_time, ptr %14, i32 0, i32 7
  store i32 %13, ptr %15, align 8, !tbaa !22
  %16 = load ptr, ptr %5, align 8, !tbaa !33
  %17 = getelementptr inbounds nuw %struct._timelib_time_offset, ptr %16, i32 0, i32 2
  %18 = load i32, ptr %17, align 8, !tbaa !37
  %19 = load ptr, ptr %3, align 8, !tbaa !11
  %20 = getelementptr inbounds nuw %struct._timelib_time, ptr %19, i32 0, i32 10
  store i32 %18, ptr %20, align 8, !tbaa !23
  %21 = load ptr, ptr %4, align 8, !tbaa !32
  %22 = load ptr, ptr %3, align 8, !tbaa !11
  %23 = getelementptr inbounds nuw %struct._timelib_time, ptr %22, i32 0, i32 9
  store ptr %21, ptr %23, align 8, !tbaa !30
  %24 = load ptr, ptr %3, align 8, !tbaa !11
  %25 = getelementptr inbounds nuw %struct._timelib_time, ptr %24, i32 0, i32 8
  %26 = load ptr, ptr %25, align 8, !tbaa !39
  %27 = icmp ne ptr %26, null
  br i1 %27, label %28, label %32

28:                                               ; preds = %2
  %29 = load ptr, ptr %3, align 8, !tbaa !11
  %30 = getelementptr inbounds nuw %struct._timelib_time, ptr %29, i32 0, i32 8
  %31 = load ptr, ptr %30, align 8, !tbaa !39
  call void @_efree(ptr noundef %31)
  br label %32

32:                                               ; preds = %28, %2
  %33 = load ptr, ptr %5, align 8, !tbaa !33
  %34 = getelementptr inbounds nuw %struct._timelib_time_offset, ptr %33, i32 0, i32 3
  %35 = load ptr, ptr %34, align 8, !tbaa !38
  %36 = call noalias ptr @_estrdup(ptr noundef %35)
  %37 = load ptr, ptr %3, align 8, !tbaa !11
  %38 = getelementptr inbounds nuw %struct._timelib_time, ptr %37, i32 0, i32 8
  store ptr %36, ptr %38, align 8, !tbaa !39
  %39 = load ptr, ptr %5, align 8, !tbaa !33
  call void @timelib_time_offset_dtor(ptr noundef %39)
  %40 = load ptr, ptr %3, align 8, !tbaa !11
  %41 = getelementptr inbounds nuw %struct._timelib_time, ptr %40, i32 0, i32 15
  store i32 1, ptr %41, align 8, !tbaa !31
  %42 = load ptr, ptr %3, align 8, !tbaa !11
  %43 = getelementptr inbounds nuw %struct._timelib_time, ptr %42, i32 0, i32 21
  store i32 3, ptr %43, align 8, !tbaa !29
  call void @llvm.lifetime.end.p0(i64 8, ptr %5) #3
  ret void
}