; Function Attrs: nounwind uwtable
define hidden void @timelib_set_timezone(ptr noundef captures(none) initializes((56, 60), (72, 84), (208, 212), (232, 236)) %0, ptr noundef %1) local_unnamed_addr #3 {
  %3 = getelementptr inbounds nuw i8, ptr %0, i64 192
  %4 = load i64, ptr %3, align 8, !tbaa !20
  %5 = tail call ptr @timelib_get_time_zone_info(i64 noundef %4, ptr noundef %1) #5
  %6 = load i32, ptr %5, align 8, !tbaa !28
  %7 = getelementptr inbounds nuw i8, ptr %0, i64 56
  store i32 %6, ptr %7, align 8, !tbaa !18
  %8 = getelementptr inbounds nuw i8, ptr %5, i64 8
  %9 = load i32, ptr %8, align 8, !tbaa !30
  %10 = getelementptr inbounds nuw i8, ptr %0, i64 80
  store i32 %9, ptr %10, align 8, !tbaa !19
  %11 = getelementptr inbounds nuw i8, ptr %0, i64 72
  store ptr %1, ptr %11, align 8, !tbaa !26
  %12 = getelementptr inbounds nuw i8, ptr %0, i64 64
  %13 = load ptr, ptr %12, align 8, !tbaa !32
  %.not = icmp eq ptr %13, null
  br i1 %.not, label %15, label %14

14:                                               ; preds = %2
  tail call void @_efree(ptr noundef nonnull %13) #5
  br label %15

15:                                               ; preds = %14, %2
  %16 = getelementptr inbounds nuw i8, ptr %5, i64 16
  %17 = load ptr, ptr %16, align 8, !tbaa !31
  %18 = tail call noalias ptr @_estrdup(ptr noundef %17) #5
  store ptr %18, ptr %12, align 8, !tbaa !32
  tail call void @timelib_time_offset_dtor(ptr noundef nonnull %5) #5
  %19 = getelementptr inbounds nuw i8, ptr %0, i64 208
  store i32 1, ptr %19, align 8, !tbaa !27
  %20 = getelementptr inbounds nuw i8, ptr %0, i64 232
  store i32 3, ptr %20, align 8, !tbaa !24
  ret void
}